; Function Attrs: mustprogress nounwind uwtable
define hidden void @_ZN17ThreadsSMRSupport13remove_threadEP10JavaThread(ptr noundef %0) local_unnamed_addr #1 align 2 {
  %2 = load volatile ptr, ptr @_ZN17ThreadsSMRSupport17_java_thread_listE, align 8
  tail call void asm sideeffect "", "~{memory},~{dirflag},~{fpsr},~{flags}"() #15, !srcloc !6
  %3 = tail call noundef ptr @_ZN11ThreadsList13remove_threadEPS_P10JavaThread(ptr noundef %2, ptr noundef %0)
  %4 = load i8, ptr @EnableThreadSMRStatistics, align 1
  %5 = trunc i8 %4 to i1
  br i1 %5, label %6, label %9

6:                                                ; preds = %1
  %7 = load i64, ptr @_ZN17ThreadsSMRSupport27_java_thread_list_alloc_cntE, align 8
  %8 = add i64 %7, 1
  store i64 %8, ptr @_ZN17ThreadsSMRSupport27_java_thread_list_alloc_cntE, align 8
  br label %9

9:                                                ; preds = %6, %1
  %10 = load volatile ptr, ptr getelementptr inbounds (i8, ptr @_ZN16LogTagSetMappingILN6LogTag4typeE159ELS1_137ELS1_0ELS1_0ELS1_0ELS1_0EE7_tagsetE, i64 56), align 8
  %.not = icmp eq ptr %10, null
  br i1 %.not, label %14, label %11

11:                                               ; preds = %9
  %12 = tail call noundef i64 @_ZN2os17current_thread_idEv() #15
  %13 = ptrtoint ptr %3 to i64
  tail call void (ptr, ...) @_ZN7LogImplILN6LogTag4typeE159ELS1_137ELS1_0ELS1_0ELS1_0ELS1_0EE5writeILN8LogLevel4typeE2EEEvPKcz(ptr noundef nonnull @.str.13, i64 noundef %12, i64 noundef %13)
  br label %14

14:                                               ; preds = %9, %11
  %15 = tail call noundef ptr asm sideeffect "xchgq ($2),$0", "=r,0,r,~{memory},~{dirflag},~{fpsr},~{flags}"(ptr %3, ptr nonnull @_ZN17ThreadsSMRSupport17_java_thread_listE) #15, !srcloc !18
  tail call void @_ZN17ThreadsSMRSupport9free_listEP11ThreadsList(ptr noundef %15)
  ret void
}